target datalayout = "e-m:e-p270:32:32-p271:32:32-p272:64:64-i64:64-i128:128-f80:128-n8:16:32:64-S128"
target triple = "x86_64-pc-linux-gnu"

%struct.CVodeMemRec = type { ptr, double, ptr, ptr, i32, i32, double, double, ptr, i32, i32, ptr, ptr, i32, [13 x ptr], ptr, ptr, ptr, ptr, ptr, ptr, ptr, ptr, ptr, i32, i32, double, i32, i32, i32, i32, i32, double, double, double, double, double, double, double, double, [14 x double], [6 x double], [13 x double], double, double, double, double, double, double, double, i32, double, i32, i64, i32, i32, i32, double, double, double, double, double, double, double, double, double, double, double, double, i64, i32, i64, i64, i64, i64, i64, i64, i64, i32, double, double, double, i64, i64, i64, i64, ptr, i32, ptr, i32, ptr, ptr, ptr, ptr, ptr, i64, double, i32, i64, double, double, double, i32, double, i32, i32, i32, i32, i32, ptr, i64, i32, [6 x [4 x double]], i32, i64, ptr, i32, ptr, ptr, double, double, double, ptr, ptr, ptr, double, double, i32, i32, i64, ptr, i32, ptr, i32, i32, [13 x double], [13 x double], [13 x ptr], i32 }

@.str = private unnamed_addr constant [113 x i8] c"generated/home/dtcxzyw/WorkSpace/Projects/compilers/llvm-opt-benchmark/bench/sundials/sundials/src/cvode/cvode.c\00", align 1
@.str.4 = private unnamed_addr constant [26 x i8] c"cvode_mem = NULL illegal.\00", align 1
@.str.10 = private unnamed_addr constant [34 x i8] c"Attempt to call before CVodeInit.\00", align 1
@__func__.CVodeWFtolerances = private unnamed_addr constant [18 x i8] c"CVodeWFtolerances\00", align 1

; Function Attrs: nounwind uwtable
define i32 @CVodeWFtolerances(ptr noundef %0, ptr noundef %1) #0 {
  %3 = alloca i32, align 4
  %4 = alloca ptr, align 8
  %5 = alloca ptr, align 8
  %6 = alloca ptr, align 8
  %7 = alloca i32, align 4
  store ptr %0, ptr %4, align 8, !tbaa !89
  store ptr %1, ptr %5, align 8, !tbaa !89
  call void @llvm.lifetime.start.p0(i64 8, ptr %6) #10
  %8 = load ptr, ptr %4, align 8, !tbaa !89
  %9 = icmp eq ptr %8, null
  br i1 %9, label %10, label %11

10:                                               ; preds = %2
  call void (ptr, i32, i32, ptr, ptr, ptr, ...) @cvProcessError(ptr noundef null, i32 noundef -21, i32 noundef 781, ptr noundef @__func__.CVodeWFtolerances, ptr noundef @.str, ptr noundef @.str.4)
  store i32 -21, ptr %3, align 4
  store i32 1, ptr %7, align 4
  br label %29

11:                                               ; preds = %2
  %12 = load ptr, ptr %4, align 8, !tbaa !89
  store ptr %12, ptr %6, align 8, !tbaa !10
  %13 = load ptr, ptr %6, align 8, !tbaa !10
  %14 = getelementptr inbounds nuw %struct.CVodeMemRec, ptr %13, i32 0, i32 107
  %15 = load i32, ptr %14, align 4, !tbaa !76
  %16 = icmp eq i32 %15, 0
  br i1 %16, label %17, label %19

17:                                               ; preds = %11
  %18 = load ptr, ptr %6, align 8, !tbaa !10
  call void (ptr, i32, i32, ptr, ptr, ptr, ...) @cvProcessError(ptr noundef %18, i32 noundef -23, i32 noundef 788, ptr noundef @__func__.CVodeWFtolerances, ptr noundef @.str, ptr noundef @.str.10)
  store i32 -23, ptr %3, align 4
  store i32 1, ptr %7, align 4
  br label %29

19:                                               ; preds = %11
  %20 = load ptr, ptr %6, align 8, !tbaa !10
  %21 = getelementptr inbounds nuw %struct.CVodeMemRec, ptr %20, i32 0, i32 5
  store i32 3, ptr %21, align 4, !tbaa !25
  %22 = load ptr, ptr %6, align 8, !tbaa !10
  %23 = getelementptr inbounds nuw %struct.CVodeMemRec, ptr %22, i32 0, i32 10
  store i32 1, ptr %23, align 4, !tbaa !27
  %24 = load ptr, ptr %5, align 8, !tbaa !89
  %25 = load ptr, ptr %6, align 8, !tbaa !10
  %26 = getelementptr inbounds nuw %struct.CVodeMemRec, ptr %25, i32 0, i32 11
  store ptr %24, ptr %26, align 8, !tbaa !28
  %27 = load ptr, ptr %6, align 8, !tbaa !10
  %28 = getelementptr inbounds nuw %struct.CVodeMemRec, ptr %27, i32 0, i32 12
  store ptr null, ptr %28, align 8, !tbaa !29
  store i32 0, ptr %3, align 4
  store i32 1, ptr %7, align 4
  br label %29

29:                                               ; preds = %19, %17, %10
  call void @llvm.lifetime.end.p0(i64 8, ptr %6) #10
  %30 = load i32, ptr %3, align 4
  ret i32 %30
}