; Function Attrs: nounwind uwtable
define range(i32 -23, 1) i32 @CVodeWFtolerances(ptr noundef captures(address_is_null) %0, ptr noundef %1) local_unnamed_addr #0 {
  %3 = icmp eq ptr %0, null
  br i1 %3, label %4, label %5

4:                                                ; preds = %2
  tail call void (ptr, i32, i32, ptr, ptr, ptr, ...) @cvProcessError(ptr noundef null, i32 noundef -21, i32 noundef 781, ptr noundef nonnull @__func__.CVodeWFtolerances, ptr noundef nonnull @.str, ptr noundef nonnull @.str.4)
  br label %15

5:                                                ; preds = %2
  %6 = getelementptr inbounds nuw i8, ptr %0, i64 1132
  %7 = load i32, ptr %6, align 4, !tbaa !97
  %8 = icmp eq i32 %7, 0
  br i1 %8, label %9, label %10

9:                                                ; preds = %5
  tail call void (ptr, i32, i32, ptr, ptr, ptr, ...) @cvProcessError(ptr noundef nonnull %0, i32 noundef -23, i32 noundef 788, ptr noundef nonnull @__func__.CVodeWFtolerances, ptr noundef nonnull @.str, ptr noundef nonnull @.str.10)
  br label %15

10:                                               ; preds = %5
  %11 = getelementptr inbounds nuw i8, ptr %0, i64 36
  store i32 3, ptr %11, align 4, !tbaa !104
  %12 = getelementptr inbounds nuw i8, ptr %0, i64 68
  store i32 1, ptr %12, align 4, !tbaa !105
  %13 = getelementptr inbounds nuw i8, ptr %0, i64 72
  store ptr %1, ptr %13, align 8, !tbaa !106
  %14 = getelementptr inbounds nuw i8, ptr %0, i64 80
  store ptr null, ptr %14, align 8, !tbaa !107
  br label %15

15:                                               ; preds = %10, %9, %4
  %.0 = phi i32 [ -21, %4 ], [ -23, %9 ], [ 0, %10 ]
  ret i32 %.0
}